target datalayout = "e-m:e-p270:32:32-p271:32:32-p272:64:64-i64:64-i128:128-f80:128-n8:16:32:64-S128"
target triple = "x86_64-pc-linux-gnu"

%struct.cCLLog_timeStamp_t = type { i64, i16 }
%struct.cCLLog_message_t = type { %struct.cCLLog_timeStamp_t, i32, i32, i32, i8, [8 x i8] }

@.str.56 = private unnamed_addr constant [33 x i8] c"cllog: length value is not valid\00", align 1
@.str.57 = private unnamed_addr constant [44 x i8] c"cllog: length value %u > maximum length %zu\00", align 1

; Function Attrs: null_pointer_is_valid sspstrong uwtable
define internal zeroext i1 @parseFieldLength(ptr noundef %0, ptr noundef %1, ptr noundef %2, ptr noundef %3, ptr noundef %4) #0 {
  %6 = alloca i1, align 1
  %7 = alloca ptr, align 8
  %8 = alloca ptr, align 8
  %9 = alloca ptr, align 8
  %10 = alloca ptr, align 8
  %11 = alloca ptr, align 8
  %12 = alloca i32, align 4
  %13 = alloca i32, align 4
  store ptr %0, ptr %7, align 8
  store ptr %1, ptr %8, align 8
  store ptr %2, ptr %9, align 8
  store ptr %3, ptr %10, align 8
  store ptr %4, ptr %11, align 8
  call void @llvm.lifetime.start.p0(i64 4, ptr %12) #13
  %14 = load ptr, ptr %8, align 8
  %15 = call zeroext i1 @ws_strtou32(ptr noundef %14, ptr noundef null, ptr noundef %12)
  br i1 %15, label %20, label %16

16:                                               ; preds = %5
  %17 = load ptr, ptr %10, align 8
  store i32 -13, ptr %17, align 4
  %18 = call noalias ptr (ptr, ...) @g_strdup_printf(ptr noundef @.str.56)
  %19 = load ptr, ptr %11, align 8
  store ptr %18, ptr %19, align 8
  store i1 false, ptr %6, align 1
  store i32 1, ptr %13, align 4
  br label %34

20:                                               ; preds = %5
  %21 = load i32, ptr %12, align 4
  %22 = zext i32 %21 to i64
  %23 = icmp ugt i64 %22, 8
  br i1 %23, label %24, label %29

24:                                               ; preds = %20
  %25 = load ptr, ptr %10, align 8
  store i32 -13, ptr %25, align 4
  %26 = load i32, ptr %12, align 4
  %27 = call noalias ptr (ptr, ...) @g_strdup_printf(ptr noundef @.str.57, i32 noundef %26, i64 noundef 8)
  %28 = load ptr, ptr %11, align 8
  store ptr %27, ptr %28, align 8
  store i1 false, ptr %6, align 1
  store i32 1, ptr %13, align 4
  br label %34

29:                                               ; preds = %20
  %30 = load i32, ptr %12, align 4
  %31 = trunc i32 %30 to i8
  %32 = load ptr, ptr %9, align 8
  %33 = getelementptr inbounds nuw %struct.cCLLog_message_t, ptr %32, i32 0, i32 4
  store i8 %31, ptr %33, align 4
  store i1 true, ptr %6, align 1
  store i32 1, ptr %13, align 4
  br label %34

34:                                               ; preds = %29, %24, %16
  call void @llvm.lifetime.end.p0(i64 4, ptr %12) #13
  %35 = load i1, ptr %6, align 1
  ret i1 %35
}