; Function Attrs: null_pointer_is_valid sspstrong uwtable
define internal noundef zeroext i1 @parseFieldLength(ptr readnone captures(none) %0, ptr noundef %1, ptr noundef writeonly captures(none) %2, ptr noundef writeonly captures(none) %3, ptr noundef writeonly captures(none) %4) #0 {
  %6 = alloca i32, align 4
  call void @llvm.lifetime.start.p0(i64 4, ptr nonnull %6) #10
  %7 = call zeroext i1 @ws_strtou32(ptr noundef %1, ptr noundef null, ptr noundef nonnull %6)
  br i1 %7, label %10, label %8

8:                                                ; preds = %5
  store i32 -13, ptr %3, align 4
  %9 = call noalias ptr (ptr, ...) @g_strdup_printf(ptr noundef nonnull @.str.56)
  store ptr %9, ptr %4, align 8
  br label %18

10:                                               ; preds = %5
  %11 = load i32, ptr %6, align 4
  %12 = icmp ugt i32 %11, 8
  br i1 %12, label %13, label %15

13:                                               ; preds = %10
  store i32 -13, ptr %3, align 4
  %14 = call noalias ptr (ptr, ...) @g_strdup_printf(ptr noundef nonnull @.str.57, i32 noundef %11, i64 noundef 8)
  store ptr %14, ptr %4, align 8
  br label %18

15:                                               ; preds = %10
  %16 = trunc nuw i32 %11 to i8
  %17 = getelementptr inbounds nuw i8, ptr %2, i64 28
  store i8 %16, ptr %17, align 4
  br label %18

18:                                               ; preds = %15, %13, %8
  %.0 = phi i1 [ false, %13 ], [ true, %15 ], [ false, %8 ]
  call void @llvm.lifetime.end.p0(i64 4, ptr nonnull %6) #10
  ret i1 %.0
}